(dp1
S'output'
p2
S"<class 'sqlite3.IntegrityError'> FOREIGN KEY constraint failed"
p3
sS'layer'
p4
S'/home/dhruv/web2py/applications/critico/controllers/default.py'
p5
sS'code'
p6
S'# -*- coding: utf-8 -*-\n# this file is released under public domain and you can use without limitations\n\n#########################################################################\n## This is a sample controller\n## - index is the default action of any application\n## - user is required for authentication and authorization\n## - download is for downloading files uploaded in the db (does streaming)\n## - api is an example of Hypermedia API support and access control\n#########################################################################\n\nINDEX_PAGE=\'index\'\nPRODUCT_FORM_PAGE=\'product_manager\'\nEDITION_MANAGER_PAGE=\'edition_manager\'\nEDITION_MANAGER_EDIT_PAGE=\'edition_manager_edit\'\nSUB_EDITION_MANAGER_EDIT_PAGE=\'sub_edition_manager_edit\'\n\n@auth.requires_login()\ndef index():\n    """\n    example action using the internationalization operator T and flash\n    rendered by views/default/index.html or views/generic.html\n\n    if you need a simple wiki simply replace the two lines below with:\n    return auth.wiki()\n    """\n    userId = session.auth.user.id\n    userType = getAuthUserType(userId)\n    if userType == \'a\':\n        return userIndex()\n    elif userType == \'b\':\n        return productIndex(userId)\n\ndef userIndex():\n    return dict(message=\'Hi user\')\n\ndef productIndex(adminId):\n    form = SQLFORM.factory(submit_button=\'Update Product Description\')\n    form.add_button(\'Add/Edit Editions\', URL(EDITION_MANAGER_PAGE))\n    if form.process().accepted:\n        redirect(URL(PRODUCT_FORM_PAGE))\n    return dict(message=\'Hi product admin\', form=form)\n\ndef product_manager():\n    adminId = session.auth.user.id\n    prodId = getProductId(adminId)\n    return dict(form=getProductManagerEdit(prodId))\n\ndef edition_manager():\n    adminId = session.auth.user.id\n    prodId = getProductId(adminId)\n    return dict(form=getEditionManagerListEdit(prodId))\n\ndef edition_manager_edit():\n    edId = request.vars.ed\n    adminId = session.auth.user.id\n    prodId = getProductId(adminId)\n    if edId == \'\':\n        edId = -1\n    else:\n        edId = int(edId)\n    return dict(form=getEditionManagerEdit(edId, prodId))\n\ndef sub_edition_manager_edit():\n    edId = int(request.vars.ed)\n    subedId = request.vars.subed\n    adminId = session.auth.user.id\n    prodId = getProductId(adminId)\n\n    ## Some checking\n\n    if subedId == \'\':\n        subedId = -1\n    else:\n        subedId = int(subedId)\n    return dict(form=getSubEditionManagerEdit(subedId, edId, prodId))\n\ndef user():\n    """\n    exposes:\n    http://..../[app]/default/user/login\n    http://..../[app]/default/user/logout\n    http://..../[app]/default/user/register\n    http://..../[app]/default/user/register_user\n    http://..../[app]/default/user/register_product_admin\n    http://..../[app]/default/user/profile\n    http://..../[app]/default/user/retrieve_password\n    http://..../[app]/default/user/change_password\n    http://..../[app]/default/user/manage_users (requires membership in\n    use @auth.requires_login()\n        @auth.requires_membership(\'group name\')\n        @auth.requires_permission(\'read\',\'table name\',record_id)\n    to decorate functions that need access control\n    """\n    if request.args(0) == \'register_user\':\n        return dict(form=getUserRegistrationForm())\n    elif request.args(0) == \'register_product_admin\':\n        return dict(form=getSoapAdminRegistrationForm())\n    elif request.args(0) == \'profile\':\n        return dict(form=getProfileForm())\n    return dict(form=auth())\n\n@cache.action()\ndef download():\n    """\n    allows downloading of uploaded files\n    http://..../[app]/default/download/[filename]\n    """\n    return response.download(request, db)\n\n\ndef call():\n    """\n    exposes services. for example:\n    http://..../[app]/default/call/jsonrpc\n    decorate with @services.jsonrpc the functions to expose\n    supports xml, json, xmlrpc, jsonrpc, amfrpc, rss, csv\n    """\n    return service()\n\n\n@auth.requires_login() \ndef api():\n    """\n    this is example of API with access control\n    WEB2PY provides Hypermedia API (Collection+JSON) Experimental\n    """\n    from gluon.contrib.hypermedia import Collection\n    rules = {\n        \'<tablename>\': {\'GET\':{},\'POST\':{},\'PUT\':{},\'DELETE\':{}},\n        }\n    return Collection(db).process(request,response,rules)\n\ndef updateAuthUserUserType(userId, userType):\n    db(db.auth_user.id == userId).update(user_type = userType)\n\ndef makeAuthUSerUser(userId):\n    updateAuthUserUserType(userId, \'a\')\n\ndef makeAuthUSerSoapAdmin(userId):\n    updateAuthUserUserType(userId, \'b\')\n\ndef approveAuthUser(userId):\n    db(db.auth_user.id == userId).update(registration_key=\'\')\n\ndef getUserRegistrationForm():\n    form = getRegistrationForm()\n    if form.accepts(request, session):\n        makeAuthUSerUser(form.vars.id)\n        approveAuthUser(form.vars.id)\n    return form\n\ndef getSoapAdminRegistrationForm():\n    form = getRegistrationForm()\n    if form.accepts(request, session):\n        makeAuthUSerSoapAdmin(form.vars.id)\n        approveAuthUser(form.vars.id)   ## ------------------- This line will be removed in production\n    return form\n\ndef disalbeAuthFieldReadOrWrite(fieldList):\n    for field in fieldList:\n        db.auth_user[field].readable = db.auth_user[field].writable = False\n\ndef getRegistrationForm():\n    disalbeAuthFieldReadOrWrite([\'gender\', \'date_of_birth\', \'country\', \'state_\', \'city\', \'display_picture_name\', \'display_picture_blob\'])\n    return auth.register()\n\n@auth.requires_login()\ndef getProfileForm():\n    disalbeAuthFieldReadOrWrite([\'username\'])\n    return auth.profile()\n\ndef getAuthUserType(userId):\n    return db(db.auth_user.id == userId).select()[0].user_type\n\n\n\'\'\'\nProduct Functions\nStart\n\'\'\'\ndef insertProduct(adminId, prodName, picName, picBlob):\n    return db.product.insert(admin_ref=adminId, name=prodName, display_picture_name=picName, display_picture_blob=picBlob)\n\ndef initProduct(adminId):\n    return insertProduct(adminId, \'\', \'\', \'\')\n\ndef getProductId(adminId):\n    val = isProductWithThisAdminIdExist(adminId)\n    if val == -1:\n        return initProduct(adminId)\n    else:\n        return val\n\ndef isProductWithThisAdminIdExist(adminId):\n    rows = db(db.product.admin_ref == adminId).select()\n    if(not rows):\n        return -1\n    else:\n        return rows[0].id\n\ndef updateProductName(prodId, prodName):\n    db(db.product.id == prodId).update(name=prodName)\n\ndef updateProductPic(prodId, picName, picBlob):\n    db(db.product.id == prodId).update(display_picture_name=picName, display_picture_blob=picBlob)\n\ndef getProductManagerEdit(prodId):\n    update = db.product(prodId)\n    form = SQLFORM(db.product, update, showid=False, upload=URL(r=request,f=\'download\'))\n    form.add_button(\'Back\', URL(INDEX_PAGE))\n    if form.accepts(request, session):\n        redirect(URL(PRODUCT_FORM_PAGE))\n    return form\n\n\'\'\'\nProduct Functions\nEnd\n\'\'\'\n\ndef updateEditionProductId(edId, prodId):\n    db(db.edition.id == edId).update(product_ref=prodId)\n\ndef isEditionWithThisIdExist(edId):\n    if not db(db.edition.id == edId).select():\n        return False\n    else:\n        return True\n\ndef getEditionManagerListEdit(prodId):\n    form = SQLFORM.factory(submit_button=\'Add edition\')\n    form.add_button(\'Back\', URL(INDEX_PAGE))\n    rows = db(db.edition.product_ref == prodId).select()\n    for row in rows:\n        str_=(\'Edit Edition #\' + str(row.number_))\n        form.add_button(str_, URL(EDITION_MANAGER_EDIT_PAGE, vars=dict(ed=str(row.id))))\n    if form.accepts(request, session):\n        redirect(URL(EDITION_MANAGER_EDIT_PAGE, vars=dict(ed=\'\')))\n    return form\n\ndef getEditionManagerEdit(edId, prodId):\n    update = db.edition(edId)\n    form = SQLFORM(db.edition, update, showid=False, upload=URL(r=request,f=\'download\'))\n    form.add_button(\'Back\', URL(EDITION_MANAGER_PAGE))\n\n    ## for sub editions\n    rows = db(db.sub_edition.product_ref == edId).select()\n    for row in rows:\n        str_=(\'Edit Sub Edition #\' + str(row.number_))\n        form.add_button(str_, URL(SUB_EDITION_MANAGER_EDIT_PAGE, vars=dict(ed=str(edId), subed=str(row.id))))\n    if isEditionWithThisIdExist(edId):\n        form.add_button(\'Add sub edition\', URL(SUB_EDITION_MANAGER_EDIT_PAGE, vars=dict(ed=str(edId), subed=\'\')))\n    ## -----\n    if form.accepts(request, session):\n        updateEditionProductId(form.vars.id, prodId)\n    return form\n\n\ndef updateSubEditionProductId(subedId, prodId):\n    db(db.sub_edition.id == subedId).update(product_ref=prodId)\n\ndef updateSubEditionEditionId(subedId, edId):\n    print subedId\n    print edId\n    db(db.sub_edition.id == subedId).update(edition_ref=edId)\n\ndef getSubEditionManagerEdit(subedId, edId, prodId):\n    update = db.sub_edition(subedId)\n    form = SQLFORM(db.sub_edition, update, showid=False, upload=URL(r=request,f=\'download\'))\n    form.add_button(\'Back\', URL(EDITION_MANAGER_PAGE,  vars=dict(ed=str(edId))))\n\n    ## for videos\n    \'\'\'\n    rows = db(db.sub_edition.product_ref == edId).select()\n    for row in rows:\n        str_=(\'Edit Sub Edition #\' + str(row.number_))\n        form.add_button(str_, URL(SUB_EDITION_MANAGER_EDIT_PAGE, vars=dict(ed=str(edId), subed=str(row.id))))\n    if isEditionWithThisIdExist(edId):\n        form.add_button(\'Add sub edition\', URL(SUB_EDITION_MANAGER_EDIT_PAGE, vars=dict(ed=str(edId), subed=\'\')))\n    \'\'\'\n    ## -----\n    if form.accepts(request, session):\n        updateSubEditionProductId(form.vars.id, prodId)\n        updateSubEditionEditionId(form.vars.id, edId)\n        redirect(URL(EDITION_MANAGER_PAGE,  vars=dict(ed=str(edId))))\n    return form\nresponse._vars=response._caller(sub_edition_manager_edit)\n'
p7
sS'snapshot'
p8
(dp9
S'exception'
p10
(dp11
S'__module__'
p12
S"'sqlite3'"
p13
sS'__getslice__'
p14
S"<method-wrapper '__getslice__' of IntegrityError object>"
p15
sS'__str__'
p16
S"<method-wrapper '__str__' of IntegrityError object>"
p17
sS'__reduce__'
p18
S'<built-in method __reduce__ of IntegrityError object>'
p19
sS'__dict__'
p20
S'{}'
p21
sS'__sizeof__'
p22
S'<built-in method __sizeof__ of IntegrityError object>'
p23
sS'__weakref__'
p24
S'None'
p25
sS'__init__'
p26
S"<method-wrapper '__init__' of IntegrityError object>"
p27
sS'__setattr__'
p28
S"<method-wrapper '__setattr__' of IntegrityError object>"
p29
sS'__reduce_ex__'
p30
S'<built-in method __reduce_ex__ of IntegrityError object>'
p31
sS'__new__'
p32
S'<built-in method __new__ of type object>'
p33
sS'__format__'
p34
S'<built-in method __format__ of IntegrityError object>'
p35
sS'__class__'
p36
S"<class 'sqlite3.IntegrityError'>"
p37
sS'__doc__'
p38
S'None'
p39
sS'__getitem__'
p40
S"<method-wrapper '__getitem__' of IntegrityError object>"
p41
sS'__setstate__'
p42
S'<built-in method __setstate__ of IntegrityError object>'
p43
sS'__getattribute__'
p44
S"<method-wrapper '__getattribute__' of IntegrityError object>"
p45
sS'args'
p46
S"('FOREIGN KEY constraint failed',)"
p47
sS'__subclasshook__'
p48
S'<built-in method __subclasshook__ of type object>'
p49
sS'__unicode__'
p50
S'<built-in method __unicode__ of IntegrityError object>'
p51
sS'__delattr__'
p52
S"<method-wrapper '__delattr__' of IntegrityError object>"
p53
sS'__repr__'
p54
S"<method-wrapper '__repr__' of IntegrityError object>"
p55
sS'__hash__'
p56
S"<method-wrapper '__hash__' of IntegrityError object>"
p57
ssS'evalue'
p58
S'FOREIGN KEY constraint failed'
p59
sS'request'
p60
cgluon.html
XML_unpickle
p61
(S's\x06i\x00\x00<div><table><tr><td style="font-weight:bold;vertical-align:top;">ajax</td><td style="vertical-align:top;">:</td><td><div>False</div></td></tr><tr><td style="font-weight:bold;vertical-align:top;">application</td><td style="vertical-align:top;">:</td><td><div>critico</div></td></tr><tr><td style="font-weight:bold;vertical-align:top;">args</td><td style="vertical-align:top;">:</td><td><div><table></table></div></td></tr><tr><td style="font-weight:bold;vertical-align:top;">cid</td><td style="vertical-align:top;">:</td><td><div>None</div></td></tr><tr><td style="font-weight:bold;vertical-align:top;">client</td><td style="vertical-align:top;">:</td><td><div>127.0.0.1</div></td></tr><tr><td style="font-weight:bold;vertical-align:top;">controller</td><td style="vertical-align:top;">:</td><td><div>default</div></td></tr><tr><td style="font-weight:bold;vertical-align:top;">cookies</td><td style="vertical-align:top;">:</td><td><div><table><tr><td style="font-weight:bold;vertical-align:top;">session_id_admin</td><td style="vertical-align:top;">:</td><td><div>127.0.0.1-19be895b-6784-44a3-ba64-a88f9db83dd9<table><tr><td style="font-weight:bold;vertical-align:top;">comment</td><td style="vertical-align:top;">:</td><td><div></div></td></tr><tr><td style="font-weight:bold;vertical-align:top;">domain</td><td style="vertical-align:top;">:</td><td><div></div></td></tr><tr><td style="font-weight:bold;vertical-align:top;">expires</td><td style="vertical-align:top;">:</td><td><div></div></td></tr><tr><td style="font-weight:bold;vertical-align:top;">httponly</td><td style="vertical-align:top;">:</td><td><div></div></td></tr><tr><td style="font-weight:bold;vertical-align:top;">max-age</td><td style="vertical-align:top;">:</td><td><div></div></td></tr><tr><td style="font-weight:bold;vertical-align:top;">path</td><td style="vertical-align:top;">:</td><td><div></div></td></tr><tr><td style="font-weight:bold;vertical-align:top;">secure</td><td style="vertical-align:top;">:</td><td><div></div></td></tr><tr><td style="font-weight:bold;vertical-align:top;">version</td><td style="vertical-align:top;">:</td><td><div></div></td></tr></table></div></td></tr><tr><td style="font-weight:bold;vertical-align:top;">session_id_critico</td><td style="vertical-align:top;">:</td><td><div>127.0.0.1-7aa4f4df-3922-49fa-a74c-8f4b5c4e5677<table><tr><td style="font-weight:bold;vertical-align:top;">comment</td><td style="vertical-align:top;">:</td><td><div></div></td></tr><tr><td style="font-weight:bold;vertical-align:top;">domain</td><td style="vertical-align:top;">:</td><td><div></div></td></tr><tr><td style="font-weight:bold;vertical-align:top;">expires</td><td style="vertical-align:top;">:</td><td><div></div></td></tr><tr><td style="font-weight:bold;vertical-align:top;">httponly</td><td style="vertical-align:top;">:</td><td><div></div></td></tr><tr><td style="font-weight:bold;vertical-align:top;">max-age</td><td style="vertical-align:top;">:</td><td><div></div></td></tr><tr><td style="font-weight:bold;vertical-align:top;">path</td><td style="vertical-align:top;">:</td><td><div></div></td></tr><tr><td style="font-weight:bold;vertical-align:top;">secure</td><td style="vertical-align:top;">:</td><td><div></div></td></tr><tr><td style="font-weight:bold;vertical-align:top;">version</td><td style="vertical-align:top;">:</td><td><div></div></td></tr></table></div></td></tr><tr><td style="font-weight:bold;vertical-align:top;">session_id_sample_app</td><td style="vertical-align:top;">:</td><td><div>127.0.0.1-0d057cb9-cdf5-4682-b07b-898dc068f898<table><tr><td style="font-weight:bold;vertical-align:top;">comment</td><td style="vertical-align:top;">:</td><td><div></div></td></tr><tr><td style="font-weight:bold;vertical-align:top;">domain</td><td style="vertical-align:top;">:</td><td><div></div></td></tr><tr><td style="font-weight:bold;vertical-align:top;">expires</td><td style="vertical-align:top;">:</td><td><div></div></td></tr><tr><td style="font-weight:bold;vertical-align:top;">httponly</td><td style="vertical-align:top;">:</td><td><div></div></td></tr><tr><td style="font-weight:bold;vertical-align:top;">max-age</td><td style="vertical-align:top;">:</td><td><div></div></td></tr><tr><td style="font-weight:bold;vertical-align:top;">path</td><td style="vertical-align:top;">:</td><td><div></div></td></tr><tr><td style="font-weight:bold;vertical-align:top;">secure</td><td style="vertical-align:top;">:</td><td><div></div></td></tr><tr><td style="font-weight:bold;vertical-align:top;">version</td><td style="vertical-align:top;">:</td><td><div></div></td></tr></table></div></td></tr><tr><td style="font-weight:bold;vertical-align:top;">session_id_soapcharts</td><td style="vertical-align:top;">:</td><td><div>127.0.0.1-9d21a5b9-a60d-4b30-8745-96479721b4e5<table><tr><td style="font-weight:bold;vertical-align:top;">comment</td><td style="vertical-align:top;">:</td><td><div></div></td></tr><tr><td style="font-weight:bold;vertical-align:top;">domain</td><td style="vertical-align:top;">:</td><td><div></div></td></tr><tr><td style="font-weight:bold;vertical-align:top;">expires</td><td style="vertical-align:top;">:</td><td><div></div></td></tr><tr><td style="font-weight:bold;vertical-align:top;">httponly</td><td style="vertical-align:top;">:</td><td><div></div></td></tr><tr><td style="font-weight:bold;vertical-align:top;">max-age</td><td style="vertical-align:top;">:</td><td><div></div></td></tr><tr><td style="font-weight:bold;vertical-align:top;">path</td><td style="vertical-align:top;">:</td><td><div></div></td></tr><tr><td style="font-weight:bold;vertical-align:top;">secure</td><td style="vertical-align:top;">:</td><td><div></div></td></tr><tr><td style="font-weight:bold;vertical-align:top;">version</td><td style="vertical-align:top;">:</td><td><div></div></td></tr></table></div></td></tr></table></div></td></tr><tr><td style="font-weight:bold;vertical-align:top;">env</td><td style="vertical-align:top;">:</td><td><div><table><tr><td style="font-weight:bold;vertical-align:top;">CONTENT_LENGTH</td><td style="vertical-align:top;">:</td><td><div>843</div></td></tr><tr><td style="font-weight:bold;vertical-align:top;">CONTENT_TYPE</td><td style="vertical-align:top;">:</td><td><div>multipart/form-data; boundary=----WebKitFormBoundaryRAucNtPAagnteTuC</div></td></tr><tr><td style="font-weight:bold;vertical-align:top;">HTTP_ACCEPT</td><td style="vertical-align:top;">:</td><td><div>text/html,application/xhtml+xml,application/xml;q=0.9,image/webp,*/*;q=0.8</div></td></tr><tr><td style="font-weight:bold;vertical-align:top;">HTTP_ACCEPT_ENCODING</td><td style="vertical-align:top;">:</td><td><div>gzip, deflate</div></td></tr><tr><td style="font-weight:bold;vertical-align:top;">HTTP_ACCEPT_LANGUAGE</td><td style="vertical-align:top;">:</td><td><div>en-US,en;q=0.8</div></td></tr><tr><td style="font-weight:bold;vertical-align:top;">HTTP_CACHE_CONTROL</td><td style="vertical-align:top;">:</td><td><div>max-age=0</div></td></tr><tr><td style="font-weight:bold;vertical-align:top;">HTTP_CONNECTION</td><td style="vertical-align:top;">:</td><td><div>keep-alive</div></td></tr><tr><td style="font-weight:bold;vertical-align:top;">HTTP_CONTENT_LENGTH</td><td style="vertical-align:top;">:</td><td><div>843</div></td></tr><tr><td style="font-weight:bold;vertical-align:top;">HTTP_CONTENT_TYPE</td><td style="vertical-align:top;">:</td><td><div>multipart/form-data; boundary=----WebKitFormBoundaryRAucNtPAagnteTuC</div></td></tr><tr><td style="font-weight:bold;vertical-align:top;">HTTP_COOKIE</td><td style="vertical-align:top;">:</td><td><div>session_id_soapcharts=127.0.0.1-9d21a5b9-a60d-4b30-8745-96479721b4e5; session_id_sample_app=127.0.0.1-0d057cb9-cdf5-4682-b07b-898dc068f898; session_id_admin=127.0.0.1-19be895b-6784-44a3-ba64-a88f9db83dd9; session_id_critico=127.0.0.1-7aa4f4df-3922-49fa-a74c-8f4b5c4e5677</div></td></tr><tr><td style="font-weight:bold;vertical-align:top;">HTTP_HOST</td><td style="vertical-align:top;">:</td><td><div>127.0.0.1:8000</div></td></tr><tr><td style="font-weight:bold;vertical-align:top;">HTTP_ORIGIN</td><td style="vertical-align:top;">:</td><td><div>http://127.0.0.1:8000</div></td></tr><tr><td style="font-weight:bold;vertical-align:top;">HTTP_REFERER</td><td style="vertical-align:top;">:</td><td><div>http://127.0.0.1:8000/critico/default/sub_edition_manager_edit?ed=7&amp;subed=</div></td></tr><tr><td style="font-weight:bold;vertical-align:top;">HTTP_USER_AGENT</td><td style="vertical-align:top;">:</td><td><div>Mozilla/5.0 (X11; Linux x86_64) AppleWebKit/537.36 (KHTML, like Gecko) Chrome/40.0.2214.115 Safari/537.36</div></td></tr><tr><td style="font-weight:bold;vertical-align:top;">PATH_INFO</td><td style="vertical-align:top;">:</td><td><div>/critico/default/sub_edition_manager_edit</div></td></tr><tr><td style="font-weight:bold;vertical-align:top;">QUERY_STRING</td><td style="vertical-align:top;">:</td><td><div>ed=7&amp;subed=</div></td></tr><tr><td style="font-weight:bold;vertical-align:top;">REMOTE_ADDR</td><td style="vertical-align:top;">:</td><td><div>127.0.0.1</div></td></tr><tr><td style="font-weight:bold;vertical-align:top;">REMOTE_PORT</td><td style="vertical-align:top;">:</td><td><div>43061</div></td></tr><tr><td style="font-weight:bold;vertical-align:top;">REQUEST_METHOD</td><td style="vertical-align:top;">:</td><td><div>POST</div></td></tr><tr><td style="font-weight:bold;vertical-align:top;">SCRIPT_NAME</td><td style="vertical-align:top;">:</td><td><div></div></td></tr><tr><td style="font-weight:bold;vertical-align:top;">SERVER_NAME</td><td style="vertical-align:top;">:</td><td><div>dhruv-Lenovo-Y50-70</div></td></tr><tr><td style="font-weight:bold;vertical-align:top;">SERVER_PORT</td><td style="vertical-align:top;">:</td><td><div>8000</div></td></tr><tr><td style="font-weight:bold;vertical-align:top;">SERVER_PROTOCOL</td><td style="vertical-align:top;">:</td><td><div>HTTP/1.1</div></td></tr><tr><td style="font-weight:bold;vertical-align:top;">SERVER_SOFTWARE</td><td style="vertical-align:top;">:</td><td><div>Rocket 1.2.6</div></td></tr><tr><td style="font-weight:bold;vertical-align:top;">app_folders</td><td style="vertical-align:top;">:</td><td><div>set([&#x27;/home/dhruv/web2py/applications/critico/&#x27;, &#x27;/home/dhruv/web2py/applications/admin/&#x27;, &#x27;/home/dhruv/web2py/applications/sample_app/&#x27;])</div></td></tr><tr><td style="font-weight:bold;vertical-align:top;">applications_parent</td><td style="vertical-align:top;">:</td><td><div>/home/dhruv/web2py</div></td></tr><tr><td style="font-weight:bold;vertical-align:top;">cmd_args</td><td style="vertical-align:top;">:</td><td><div><table></table></div></td></tr><tr><td style="font-weight:bold;vertical-align:top;">cmd_options</td><td style="vertical-align:top;">:</td><td><div>&lt;Values at 0x7f8ac9d4bf80: {&#x27;verbose&#x27;: False, &#x27;ip&#x27;: &#x27;127.0.0.1&#x27;, &#x27;debuglevel&#x27;: 30, &#x27;with_scheduler&#x27;: False, &#x27;ips&#x27;: [&#x27;127.0.1.1&#x27;], &#x27;shutdown_timeout&#x27;: 5, &#x27;taskbar&#x27;: False, &#x27;with_coverage&#x27;: False, &#x27;scheduler_groups&#x27;: None, &#x27;port&#x27;: 8000, &#x27;maxthreads&#x27;: None, &#x27;softcron&#x27;: False, &#x27;server_name&#x27;: &#x27;dhruv-Lenovo-Y50-70&#x27;, &#x27;bpython&#x27;: False, &#x27;nogui&#x27;: False, &#x27;pid_filename&#x27;: &#x27;httpserver.pid&#x27;, &#x27;extcron&#x27;: False, &#x27;runcron&#x27;: False, &#x27;run_system_tests&#x27;: False, &#x27;test&#x27;: None, &#x27;folder&#x27;: &#x27;/home/dhruv/web2py&#x27;, &#x27;config&#x27;: &#x27;&#x27;, &#x27;minthreads&#x27;: None, &#x27;shell&#x27;: None, &#x27;run&#x27;: &#x27;&#x27;, &#x27;log_filename&#x27;: &#x27;httpserver.log&#x27;, &#x27;profiler_dir&#x27;: None, &#x27;args&#x27;: [&#x27;&#x27;], &#x27;socket_timeout&#x27;: 5, &#x27;ssl_ca_certificate&#x27;: None, &#x27;scheduler&#x27;: None, &#x27;interfaces&#x27;: None, &#x27;ssl_private_key&#x27;: &#x27;&#x27;, &#x27;gae&#x27;: None, &#x27;password&#x27;: &#x27;&lt;ask&gt;&#x27;, &#x27;request_queue_size&#x27;: 5, &#x27;ssl_certificate&#x27;: &#x27;&#x27;, &#x27;cronjob&#x27;: False, &#x27;numthreads&#x27;: None, &#x27;quiet&#x27;: False, &#x27;import_models&#x27;: False, &#x27;timeout&#x27;: 10, &#x27;plain&#x27;: False, &#x27;nobanner&#x27;: False}&gt;</div></td></tr><tr><td style="font-weight:bold;vertical-align:top;">content_length</td><td style="vertical-align:top;">:</td><td><div>843</div></td></tr><tr><td style="font-weight:bold;vertical-align:top;">content_type</td><td style="vertical-align:top;">:</td><td><div>multipart/form-data; boundary=----WebKitFormBoundaryRAucNtPAagnteTuC</div></td></tr><tr><td style="font-weight:bold;vertical-align:top;">db_sessions</td><td style="vertical-align:top;">:</td><td><div>set([])</div></td></tr><tr><td style="font-weight:bold;vertical-align:top;">debugging</td><td style="vertical-align:top;">:</td><td><div>False</div></td></tr><tr><td style="font-weight:bold;vertical-align:top;">gluon_parent</td><td style="vertical-align:top;">:</td><td><div>/home/dhruv/web2py</div></td></tr><tr><td style="font-weight:bold;vertical-align:top;">http_accept</td><td style="vertical-align:top;">:</td><td><div>text/html,application/xhtml+xml,application/xml;q=0.9,image/webp,*/*;q=0.8</div></td></tr><tr><td style="font-weight:bold;vertical-align:top;">http_accept_encoding</td><td style="vertical-align:top;">:</td><td><div>gzip, deflate</div></td></tr><tr><td style="font-weight:bold;vertical-align:top;">http_accept_language</td><td style="vertical-align:top;">:</td><td><div>en-US,en;q=0.8</div></td></tr><tr><td style="font-weight:bold;vertical-align:top;">http_cache_control</td><td style="vertical-align:top;">:</td><td><div>max-age=0</div></td></tr><tr><td style="font-weight:bold;vertical-align:top;">http_connection</td><td style="vertical-align:top;">:</td><td><div>keep-alive</div></td></tr><tr><td style="font-weight:bold;vertical-align:top;">http_content_length</td><td style="vertical-align:top;">:</td><td><div>843</div></td></tr><tr><td style="font-weight:bold;vertical-align:top;">http_content_type</td><td style="vertical-align:top;">:</td><td><div>multipart/form-data; boundary=----WebKitFormBoundaryRAucNtPAagnteTuC</div></td></tr><tr><td style="font-weight:bold;vertical-align:top;">http_cookie</td><td style="vertical-align:top;">:</td><td><div>session_id_soapcharts=127.0.0.1-9d21a5b9-a60d-4b30-8745-96479721b4e5; session_id_sample_app=127.0.0.1-0d057cb9-cdf5-4682-b07b-898dc068f898; session_id_admin=127.0.0.1-19be895b-6784-44a3-ba64-a88f9db83dd9; session_id_critico=127.0.0.1-7aa4f4df-3922-49fa-a74c-8f4b5c4e5677</div></td></tr><tr><td style="font-weight:bold;vertical-align:top;">http_host</td><td style="vertical-align:top;">:</td><td><div>127.0.0.1:8000</div></td></tr><tr><td style="font-weight:bold;vertical-align:top;">http_origin</td><td style="vertical-align:top;">:</td><td><div>http://127.0.0.1:8000</div></td></tr><tr><td style="font-weight:bold;vertical-align:top;">http_referer</td><td style="vertical-align:top;">:</td><td><div>http://127.0.0.1:8000/critico/default/sub_edition_manager_edit?ed=7&amp;subed=</div></td></tr><tr><td style="font-weight:bold;vertical-align:top;">http_user_agent</td><td style="vertical-align:top;">:</td><td><div>Mozilla/5.0 (X11; Linux x86_64) AppleWebKit/537.36 (KHTML, like Gecko) Chrome/40.0.2214.115 Safari/537.36</div></td></tr><tr><td style="font-weight:bold;vertical-align:top;">is_jython</td><td style="vertical-align:top;">:</td><td><div>False</div></td></tr><tr><td style="font-weight:bold;vertical-align:top;">is_pypy</td><td style="vertical-align:top;">:</td><td><div>False</div></td></tr><tr><td style="font-weight:bold;vertical-align:top;">is_source</td><td style="vertical-align:top;">:</td><td><div>True</div></td></tr><tr><td style="font-weight:bold;vertical-align:top;">local_hosts</td><td style="vertical-align:top;">:</td><td><div><table><tr><td><div>::1</div></td></tr><tr><td><div>127.0.1.1</div></td></tr><tr><td><div>::ffff:127.0.0.1</div></td></tr><tr><td><div>127.0.0.1</div></td></tr><tr><td><div>dhruv-Lenovo-Y50-70</div></td></tr></table></div></td></tr><tr><td style="font-weight:bold;vertical-align:top;">path_info</td><td style="vertical-align:top;">:</td><td><div>/critico/default/sub_edition_manager_edit</div></td></tr><tr><td style="font-weight:bold;vertical-align:top;">query_string</td><td style="vertical-align:top;">:</td><td><div>ed=7&amp;subed=</div></td></tr><tr><td style="font-weight:bold;vertical-align:top;">remote_addr</td><td style="vertical-align:top;">:</td><td><div>127.0.0.1</div></td></tr><tr><td style="font-weight:bold;vertical-align:top;">remote_port</td><td style="vertical-align:top;">:</td><td><div>43061</div></td></tr><tr><td style="font-weight:bold;vertical-align:top;">request_method</td><td style="vertical-align:top;">:</td><td><div>POST</div></td></tr><tr><td style="font-weight:bold;vertical-align:top;">request_uri</td><td style="vertical-align:top;">:</td><td><div>/critico/default/sub_edition_manager_edit?ed=7&amp;subed=</div></td></tr><tr><td style="font-weight:bold;vertical-align:top;">script_name</td><td style="vertical-align:top;">:</td><td><div></div></td></tr><tr><td style="font-weight:bold;vertical-align:top;">server_name</td><td style="vertical-align:top;">:</td><td><div>dhruv-Lenovo-Y50-70</div></td></tr><tr><td style="font-weight:bold;vertical-align:top;">server_port</td><td style="vertical-align:top;">:</td><td><div>8000</div></td></tr><tr><td style="font-weight:bold;vertical-align:top;">server_protocol</td><td style="vertical-align:top;">:</td><td><div>HTTP/1.1</div></td></tr><tr><td style="font-weight:bold;vertical-align:top;">server_software</td><td style="vertical-align:top;">:</td><td><div>Rocket 1.2.6</div></td></tr><tr><td style="font-weight:bold;vertical-align:top;">web2py_path</td><td style="vertical-align:top;">:</td><td><div>/home/dhruv/web2py</div></td></tr><tr><td style="font-weight:bold;vertical-align:top;">web2py_version</td><td style="vertical-align:top;">:</td><td><div>2.9.12-stable+timestamp.2015.01.17.06.11.03</div></td></tr><tr><td style="font-weight:bold;vertical-align:top;">wsgi.errors</td><td style="vertical-align:top;">:</td><td><div>&lt;open file &#x27;&lt;stderr&gt;&#x27;, mode &#x27;w&#x27; at 0x7f8ad0d6e1e0&gt;</div></td></tr><tr><td style="font-weight:bold;vertical-align:top;">wsgi.file_wrapper</td><td style="vertical-align:top;">:</td><td><div>&lt;class wsgiref.util.FileWrapper at 0x7f8ac9fea258&gt;</div></td></tr><tr><td style="font-weight:bold;vertical-align:top;">wsgi.input</td><td style="vertical-align:top;">:</td><td><div>&lt;socket._fileobject object at 0x7f8ac04342d0&gt;</div></td></tr><tr><td style="font-weight:bold;vertical-align:top;">wsgi.multiprocess</td><td style="vertical-align:top;">:</td><td><div>False</div></td></tr><tr><td style="font-weight:bold;vertical-align:top;">wsgi.multithread</td><td style="vertical-align:top;">:</td><td><div>True</div></td></tr><tr><td style="font-weight:bold;vertical-align:top;">wsgi.run_once</td><td style="vertical-align:top;">:</td><td><div>False</div></td></tr><tr><td style="font-weight:bold;vertical-align:top;">wsgi.url_scheme</td><td style="vertical-align:top;">:</td><td><div>http</div></td></tr><tr><td style="font-weight:bold;vertical-align:top;">wsgi.version</td><td style="vertical-align:top;">:</td><td><div><table><tr><td><div>1</div></td></tr><tr><td><div>0</div></td></tr></table></div></td></tr><tr><td style="font-weight:bold;vertical-align:top;">wsgi_errors</td><td style="vertical-align:top;">:</td><td><div>&lt;open file &#x27;&lt;stderr&gt;&#x27;, mode &#x27;w&#x27; at 0x7f8ad0d6e1e0&gt;</div></td></tr><tr><td style="font-weight:bold;vertical-align:top;">wsgi_file_wrapper</td><td style="vertical-align:top;">:</td><td><div>&lt;class wsgiref.util.FileWrapper at 0x7f8ac9fea258&gt;</div></td></tr><tr><td style="font-weight:bold;vertical-align:top;">wsgi_input</td><td style="vertical-align:top;">:</td><td><div>&lt;socket._fileobject object at 0x7f8ac04342d0&gt;</div></td></tr><tr><td style="font-weight:bold;vertical-align:top;">wsgi_multiprocess</td><td style="vertical-align:top;">:</td><td><div>False</div></td></tr><tr><td style="font-weight:bold;vertical-align:top;">wsgi_multithread</td><td style="vertical-align:top;">:</td><td><div>True</div></td></tr><tr><td style="font-weight:bold;vertical-align:top;">wsgi_run_once</td><td style="vertical-align:top;">:</td><td><div>False</div></td></tr><tr><td style="font-weight:bold;vertical-align:top;">wsgi_url_scheme</td><td style="vertical-align:top;">:</td><td><div>http</div></td></tr><tr><td style="font-weight:bold;vertical-align:top;">wsgi_version</td><td style="vertical-align:top;">:</td><td><div><table><tr><td><div>1</div></td></tr><tr><td><div>0</div></td></tr></table></div></td></tr></table></div></td></tr><tr><td style="font-weight:bold;vertical-align:top;">extension</td><td style="vertical-align:top;">:</td><td><div>html</div></td></tr><tr><td style="font-weight:bold;vertical-align:top;">folder</td><td style="vertical-align:top;">:</td><td><div>/home/dhruv/web2py/applications/critico/</div></td></tr><tr><td style="font-weight:bold;vertical-align:top;">function</td><td style="vertical-align:top;">:</td><td><div>sub_edition_manager_edit</div></td></tr><tr><td style="font-weight:bold;vertical-align:top;">global_settings</td><td style="vertical-align:top;">:</td><td><div><table><tr><td style="font-weight:bold;vertical-align:top;">app_folders</td><td style="vertical-align:top;">:</td><td><div>set([&#x27;/home/dhruv/web2py/applications/critico/&#x27;, &#x27;/home/dhruv/web2py/applications/admin/&#x27;, &#x27;/home/dhruv/web2py/applications/sample_app/&#x27;])</div></td></tr><tr><td style="font-weight:bold;vertical-align:top;">applications_parent</td><td style="vertical-align:top;">:</td><td><div>/home/dhruv/web2py</div></td></tr><tr><td style="font-weight:bold;vertical-align:top;">cmd_args</td><td style="vertical-align:top;">:</td><td><div><table></table></div></td></tr><tr><td style="font-weight:bold;vertical-align:top;">cmd_options</td><td style="vertical-align:top;">:</td><td><div>&lt;Values at 0x7f8ac9d4bf80: {&#x27;verbose&#x27;: False, &#x27;ip&#x27;: &#x27;127.0.0.1&#x27;, &#x27;debuglevel&#x27;: 30, &#x27;with_scheduler&#x27;: False, &#x27;ips&#x27;: [&#x27;127.0.1.1&#x27;], &#x27;shutdown_timeout&#x27;: 5, &#x27;taskbar&#x27;: False, &#x27;with_coverage&#x27;: False, &#x27;scheduler_groups&#x27;: None, &#x27;port&#x27;: 8000, &#x27;maxthreads&#x27;: None, &#x27;softcron&#x27;: False, &#x27;server_name&#x27;: &#x27;dhruv-Lenovo-Y50-70&#x27;, &#x27;bpython&#x27;: False, &#x27;nogui&#x27;: False, &#x27;pid_filename&#x27;: &#x27;httpserver.pid&#x27;, &#x27;extcron&#x27;: False, &#x27;runcron&#x27;: False, &#x27;run_system_tests&#x27;: False, &#x27;test&#x27;: None, &#x27;folder&#x27;: &#x27;/home/dhruv/web2py&#x27;, &#x27;config&#x27;: &#x27;&#x27;, &#x27;minthreads&#x27;: None, &#x27;shell&#x27;: None, &#x27;run&#x27;: &#x27;&#x27;, &#x27;log_filename&#x27;: &#x27;httpserver.log&#x27;, &#x27;profiler_dir&#x27;: None, &#x27;args&#x27;: [&#x27;&#x27;], &#x27;socket_timeout&#x27;: 5, &#x27;ssl_ca_certificate&#x27;: None, &#x27;scheduler&#x27;: None, &#x27;interfaces&#x27;: None, &#x27;ssl_private_key&#x27;: &#x27;&#x27;, &#x27;gae&#x27;: None, &#x27;password&#x27;: &#x27;&lt;ask&gt;&#x27;, &#x27;request_queue_size&#x27;: 5, &#x27;ssl_certificate&#x27;: &#x27;&#x27;, &#x27;cronjob&#x27;: False, &#x27;numthreads&#x27;: None, &#x27;quiet&#x27;: False, &#x27;import_models&#x27;: False, &#x27;timeout&#x27;: 10, &#x27;plain&#x27;: False, &#x27;nobanner&#x27;: False}&gt;</div></td></tr><tr><td style="font-weight:bold;vertical-align:top;">db_sessions</td><td style="vertical-align:top;">:</td><td><div>set([])</div></td></tr><tr><td style="font-weight:bold;vertical-align:top;">debugging</td><td style="vertical-align:top;">:</td><td><div>False</div></td></tr><tr><td style="font-weight:bold;vertical-align:top;">gluon_parent</td><td style="vertical-align:top;">:</td><td><div>/home/dhruv/web2py</div></td></tr><tr><td style="font-weight:bold;vertical-align:top;">is_jython</td><td style="vertical-align:top;">:</td><td><div>False</div></td></tr><tr><td style="font-weight:bold;vertical-align:top;">is_pypy</td><td style="vertical-align:top;">:</td><td><div>False</div></td></tr><tr><td style="font-weight:bold;vertical-align:top;">is_source</td><td style="vertical-align:top;">:</td><td><div>True</div></td></tr><tr><td style="font-weight:bold;vertical-align:top;">local_hosts</td><td style="vertical-align:top;">:</td><td><div><table><tr><td><div>::1</div></td></tr><tr><td><div>127.0.1.1</div></td></tr><tr><td><div>::ffff:127.0.0.1</div></td></tr><tr><td><div>127.0.0.1</div></td></tr><tr><td><div>dhruv-Lenovo-Y50-70</div></td></tr></table></div></td></tr><tr><td style="font-weight:bold;vertical-align:top;">web2py_version</td><td style="vertical-align:top;">:</td><td><div>2.9.12-stable+timestamp.2015.01.17.06.11.03</div></td></tr></table></div></td></tr><tr><td style="font-weight:bold;vertical-align:top;">is_https</td><td style="vertical-align:top;">:</td><td><div>False</div></td></tr><tr><td style="font-weight:bold;vertical-align:top;">is_local</td><td style="vertical-align:top;">:</td><td><div>True</div></td></tr><tr><td style="font-weight:bold;vertical-align:top;">is_restful</td><td style="vertical-align:top;">:</td><td><div>False</div></td></tr><tr><td style="font-weight:bold;vertical-align:top;">is_sheduler</td><td style="vertical-align:top;">:</td><td><div>None</div></td></tr><tr><td style="font-weight:bold;vertical-align:top;">is_shell</td><td style="vertical-align:top;">:</td><td><div>None</div></td></tr><tr><td style="font-weight:bold;vertical-align:top;">now</td><td style="vertical-align:top;">:</td><td><div>datetime.datetime(2015, 4, 2, 21, 41, 43, 740781)</div></td></tr><tr><td style="font-weight:bold;vertical-align:top;">raw_args</td><td style="vertical-align:top;">:</td><td><div></div></td></tr><tr><td style="font-weight:bold;vertical-align:top;">raw_extension</td><td style="vertical-align:top;">:</td><td><div>None</div></td></tr><tr><td style="font-weight:bold;vertical-align:top;">url</td><td style="vertical-align:top;">:</td><td><div>/critico/default/sub_edition_manager_edit</div></td></tr><tr><td style="font-weight:bold;vertical-align:top;">utcnow</td><td style="vertical-align:top;">:</td><td><div>datetime.datetime(2015, 4, 2, 16, 11, 43, 740812)</div></td></tr><tr><td style="font-weight:bold;vertical-align:top;">uuid</td><td style="vertical-align:top;">:</td><td><div>critico/127.0.0.1.2015-04-02.21-41-43.b8d9eeba-4e23-4530-b1d0-092264b9871b</div></td></tr><tr><td style="font-weight:bold;vertical-align:top;">wsgi</td><td style="vertical-align:top;">:</td><td><div>&lt;gluon.main.LazyWSGI object at 0x7f8ac0098490&gt;</div></td></tr></table></div>'
tRp62
sS'frames'
p63
(lp64
(dp65
S'file'
p66
S'/home/dhruv/web2py/gluon/restricted.py'
p67
sS'dump'
p68
(dp69
S'environment'
p70
S"{'A': <class 'gluon.html.A'>, 'ANY_OF': <class 'gluon.validators.ANY_OF'>, 'ASSIGNJS': <function ASSIGNJS>, 'Auth': <class 'gluon.tools.Auth'>, 'B': <class 'gluon.html.B'>, 'BEAUTIFY': <class 'gluon.html.BEAUTIFY'>, 'BODY': <class 'gluon.html.BODY'>, 'BR': <class 'gluon.html.BR'>, 'BUTTON': <class 'gluon.html.BUTTON'>, 'CAT': <class 'gluon.html.CAT'>, ...}"
p71
sS'ccode'
p72
S'<code object <module> at 0x7f8ac02653b0, file "/...cations/critico/controllers/default.py", line 12>'
p73
ssS'lnum'
p74
I224
sS'lines'
p75
(dp76
I224
S'        exec ccode in environment'
p77
sI225
S'    except HTTP:'
p78
sI226
S'        raise'
p79
sI227
S'    except RestrictedError:'
p80
sI228
S'        # do not encapsulate (obfuscate) the original RestrictedError'
p81
sI219
S'    try:'
p82
sI220
S'        if isinstance(code, types.CodeType):'
p83
sI221
S'            ccode = code'
p84
sI222
S'        else:'
p85
sI223
S'            ccode = compile2(code, layer)'
p86
ssS'call'
p87
S"(code='# -*- coding: utf-8 -*-\\n# this file is released ..._vars=response._caller(sub_edition_manager_edit)\\n', environment={'A': <class 'gluon.html.A'>, 'ANY_OF': <class 'gluon.validators.ANY_OF'>, 'ASSIGNJS': <function ASSIGNJS>, 'Auth': <class 'gluon.tools.Auth'>, 'B': <class 'gluon.html.B'>, 'BEAUTIFY': <class 'gluon.html.BEAUTIFY'>, 'BODY': <class 'gluon.html.BODY'>, 'BR': <class 'gluon.html.BR'>, 'BUTTON': <class 'gluon.html.BUTTON'>, 'CAT': <class 'gluon.html.CAT'>, ...}, layer='/home/dhruv/web2py/applications/critico/controllers/default.py')"
p88
sS'func'
p89
S'restricted'
p90
sa(dp91
g66
S'/home/dhruv/web2py/applications/critico/controllers/default.py'
p92
sg68
(dp93
sg74
I286
sg75
(dp94
I276
S'        form.add_button(str_, URL(SUB_EDITION_MANAGER_EDIT_PAGE, vars=dict(ed=str(edId), subed=str(row.id))))'
p95
sI277
S'    if isEditionWithThisIdExist(edId):'
p96
sI278
S"        form.add_button('Add sub edition', URL(SUB_EDITION_MANAGER_EDIT_PAGE, vars=dict(ed=str(edId), subed='')))"
p97
sI279
S"    '''"
p98
sI280
S'    ## -----'
p99
sI281
S'    if form.accepts(request, session):'
p100
sI282
S'        updateSubEditionProductId(form.vars.id, prodId)'
p101
sI283
S'        updateSubEditionEditionId(form.vars.id, edId)'
p102
sI284
S'        redirect(URL(EDITION_MANAGER_PAGE,  vars=dict(ed=str(edId))))'
p103
sI285
S'    return form'
p104
ssg87
S'()'
p105
sg89
S'<module>'
p106
sa(dp107
g66
S'/home/dhruv/web2py/gluon/globals.py'
p108
sg68
(dp109
S'self'
p110
S'undefined'
p111
sS'f'
S'<function sub_edition_manager_edit>'
p112
ssg74
I393
sg75
(dp113
I388
S"        self.flash = ''            # used by the default view layout"
p114
sI389
S'        self.meta = Storage()      # used by web2py_ajax.html'
p115
sI390
S'        self.menu = []             # used by the default view layout'
p116
sI391
S'        self.files = []            # used by web2py_ajax.html'
p117
sI392
S'        self._vars = None'
p118
sI393
S'        self._caller = lambda f: f()'
p119
sI394
S'        self._view_environment = None'
p120
sI395
S'        self._custom_commit = None'
p121
sI396
S'        self._custom_rollback = None'
p122
sI397
S"        self.generic_patterns = ['*']"
p123
ssg87
S'(f=<function sub_edition_manager_edit>)'
p124
sg89
S'<lambda>'
p125
sa(dp126
g66
S'/home/dhruv/web2py/applications/critico/controllers/default.py'
p127
sg68
(dp128
S'form'
p129
g111
sS'builtindict'
p130
S"<type 'dict'>"
p131
sS'edId'
p132
S'7'
sS'subedId'
p133
S'-1'
p134
sS'prodId'
p135
S'2L'
p136
sS'global getSubEditionManagerEdit'
p137
S'<function getSubEditionManagerEdit>'
p138
ssg74
I76
sg75
(dp139
I71
S''
sI72
S"    if subedId == '':"
p140
sI73
S'        subedId = -1'
p141
sI74
S'    else:'
p142
sI75
S'        subedId = int(subedId)'
p143
sI76
S'    return dict(form=getSubEditionManagerEdit(subedId, edId, prodId))'
p144
sI77
S''
sI78
S'def user():'
p145
sI79
S'    """'
p146
sI80
S'    exposes:'
p147
ssg87
S'()'
p148
sg89
S'sub_edition_manager_edit'
p149
sa(dp150
g66
S'/home/dhruv/web2py/applications/critico/controllers/default.py'
p151
sg68
(dp152
S'edId'
p153
S'7'
sS'global updateSubEditionEditionId'
p154
S'<function updateSubEditionEditionId>'
p155
sS'form.vars.id'
p156
S'2L'
p157
sS'form.vars'
p158
S"<Storage {'description': '1', 'display_picture_n...None, 'number_': 1, 'id': 2L, 'name': 'fsewefw'}>"
p159
sS'form'
p160
S'<gluon.sqlhtml.SQLFORM object>'
p161
ssg74
I283
sg75
(dp162
I276
S'        form.add_button(str_, URL(SUB_EDITION_MANAGER_EDIT_PAGE, vars=dict(ed=str(edId), subed=str(row.id))))'
p163
sI277
S'    if isEditionWithThisIdExist(edId):'
p164
sI278
S"        form.add_button('Add sub edition', URL(SUB_EDITION_MANAGER_EDIT_PAGE, vars=dict(ed=str(edId), subed='')))"
p165
sI279
S"    '''"
p166
sI280
S'    ## -----'
p167
sI281
S'    if form.accepts(request, session):'
p168
sI282
S'        updateSubEditionProductId(form.vars.id, prodId)'
p169
sI283
S'        updateSubEditionEditionId(form.vars.id, edId)'
p170
sI284
S'        redirect(URL(EDITION_MANAGER_PAGE,  vars=dict(ed=str(edId))))'
p171
sI285
S'    return form'
p172
ssg87
S'(subedId=-1, edId=7, prodId=2L)'
p173
sg89
S'getSubEditionManagerEdit'
p174
sa(dp175
g66
S'/home/dhruv/web2py/applications/critico/controllers/default.py'
p176
sg68
(dp177
S'db.sub_edition.id'
p178
S'<gluon.dal.objects.Field object>'
p179
sS'edId'
p180
S'7'
sS').update'
p181
S"<bound method Row.<lambda> of <Row {'product_ref...f_release': None, 'id': 2L, 'description': '1'}>>"
p182
sS'edition_ref'
p183
g111
sS'db.sub_edition'
p184
S'<Table sub_edition (id,product_ref,edition_ref,n...ption,display_picture_name,display_picture_blob)>'
p185
sS'global db'
p186
S'<DAL uri="sqlite://storage.sqlite">'
p187
sS'subedId'
p188
S'2L'
p189
ssg74
I264
sg75
(dp190
I259
S'    db(db.sub_edition.id == subedId).update(product_ref=prodId)'
p191
sI260
S''
sI261
S'def updateSubEditionEditionId(subedId, edId):'
p192
sI262
S'    print subedId'
p193
sI263
S'    print edId'
p194
sI264
S'    db(db.sub_edition.id == subedId).update(edition_ref=edId)'
p195
sI265
S''
sI266
S'def getSubEditionManagerEdit(subedId, edId, prodId):'
p196
sI267
S'    update = db.sub_edition(subedId)'
p197
sI268
S"    form = SQLFORM(db.sub_edition, update, showid=False, upload=URL(r=request,f='download'))"
p198
ssg87
S'(subedId=2L, edId=7)'
p199
sg89
S'updateSubEditionEditionId'
p200
sa(dp201
g66
S'/home/dhruv/web2py/gluon/dal/objects.py'
p202
sg68
(dp203
S'table._tablename'
p204
S"'sub_edition'"
p205
sS'db._adapter'
p206
S'<gluon.dal.adapters.sqlite.SQLiteAdapter object>'
p207
sS'fields'
p208
S'[(<gluon.dal.objects.Field object>, 7)]'
p209
sS'self'
p210
S'<Set (sub_edition.id = 2)>'
p211
sS'db'
p212
S'<DAL uri="sqlite://storage.sqlite">'
p213
sS'self.query'
p214
S'<Query (sub_edition.id = 2)>'
p215
sS'ret'
p216
g111
sS'table'
p217
S'<Table sub_edition (id,product_ref,edition_ref,n...ption,display_picture_name,display_picture_blob)>'
p218
sS'db._adapter.update'
p219
S'<bound method SQLiteAdapter.update of <gluon.dal.adapters.sqlite.SQLiteAdapter object>>'
p220
ssg74
I2090
sg75
(dp221
I2085
S'        if any(f(self,update_fields) for f in table._before_update):'
p222
sI2086
S'            return 0'
p223
sI2087
S'        fields = table._listify(update_fields,update=True)'
p224
sI2088
S'        if not fields:'
p225
sI2089
S'            raise SyntaxError("No fields to update")'
p226
sI2090
S'        ret = db._adapter.update("%s" % table._tablename,self.query,fields)'
p227
sI2091
S'        ret and [f(self,update_fields) for f in table._after_update]'
p228
sI2092
S'        return ret'
p229
sI2093
S''
sI2094
S'    def update_naive(self, **update_fields):'
p230
ssg87
S"(self=<Set (sub_edition.id = 2)>, **update_fields={'edition_ref': 7})"
p231
sg89
S'update'
p232
sa(dp233
g66
S'/home/dhruv/web2py/gluon/dal/adapters/base.py'
p234
sg68
(dp235
S'e'
S"IntegrityError('FOREIGN KEY constraint failed',)"
p236
ssg74
I976
sg75
(dp237
I971
S'        except Exception:'
p238
sI972
S'            e = sys.exc_info()[1]'
p239
sI973
S'            table = self.db[tablename]'
p240
sI974
S"            if hasattr(table,'_on_update_error'):"
p241
sI975
S'                return table._on_update_error(table,query,fields,e)'
p242
sI976
S'            raise e'
p243
sI977
S'        try:'
p244
sI978
S'            return self.cursor.rowcount'
p245
sI979
S'        except:'
p246
sI980
S'            return None'
p247
ssg87
S"(self=<gluon.dal.adapters.sqlite.SQLiteAdapter object>, tablename='sub_edition', query=<Query (sub_edition.id = 2)>, fields=[(<gluon.dal.objects.Field object>, 7)])"
p248
sg89
g232
sasS'pyver'
p249
S'Python 2.7.6: /usr/bin/python (prefix: /usr)'
p250
sS'session'
p251
g61
(S's3\x0e\x00\x00<div><table><tr><td style="font-weight:bold;vertical-align:top;">auth</td><td style="vertical-align:top;">:</td><td><div><table><tr><td style="font-weight:bold;vertical-align:top;">expiration</td><td style="vertical-align:top;">:</td><td><div>3600</div></td></tr><tr><td style="font-weight:bold;vertical-align:top;">hmac_key</td><td style="vertical-align:top;">:</td><td><div>56631f36-dab6-420f-8d0a-a2ef5c8b0190</div></td></tr><tr><td style="font-weight:bold;vertical-align:top;">last_visit</td><td style="vertical-align:top;">:</td><td><div>datetime.datetime(2015, 4, 2, 21, 41, 34, 212123)</div></td></tr><tr><td style="font-weight:bold;vertical-align:top;">remember_me</td><td style="vertical-align:top;">:</td><td><div>False</div></td></tr><tr><td style="font-weight:bold;vertical-align:top;">user</td><td style="vertical-align:top;">:</td><td><div><table><tr><td style="font-weight:bold;vertical-align:top;">city</td><td style="vertical-align:top;">:</td><td><div></div></td></tr><tr><td style="font-weight:bold;vertical-align:top;">country</td><td style="vertical-align:top;">:</td><td><div></div></td></tr><tr><td style="font-weight:bold;vertical-align:top;">date_of_birth</td><td style="vertical-align:top;">:</td><td><div>None</div></td></tr><tr><td style="font-weight:bold;vertical-align:top;">display_picture_blob</td><td style="vertical-align:top;">:</td><td><div>None</div></td></tr><tr><td style="font-weight:bold;vertical-align:top;">display_picture_name</td><td style="vertical-align:top;">:</td><td><div></div></td></tr><tr><td style="font-weight:bold;vertical-align:top;">email</td><td style="vertical-align:top;">:</td><td><div>sd@gmail.com</div></td></tr><tr><td style="font-weight:bold;vertical-align:top;">first_name</td><td style="vertical-align:top;">:</td><td><div>Dhruv</div></td></tr><tr><td style="font-weight:bold;vertical-align:top;">gender</td><td style="vertical-align:top;">:</td><td><div>None</div></td></tr><tr><td style="font-weight:bold;vertical-align:top;">id</td><td style="vertical-align:top;">:</td><td><div>9L</div></td></tr><tr><td style="font-weight:bold;vertical-align:top;">last_name</td><td style="vertical-align:top;">:</td><td><div>Kohli</div></td></tr><tr><td style="font-weight:bold;vertical-align:top;">registration_id</td><td style="vertical-align:top;">:</td><td><div></div></td></tr><tr><td style="font-weight:bold;vertical-align:top;">registration_key</td><td style="vertical-align:top;">:</td><td><div></div></td></tr><tr><td style="font-weight:bold;vertical-align:top;">reset_password_key</td><td style="vertical-align:top;">:</td><td><div></div></td></tr><tr><td style="font-weight:bold;vertical-align:top;">state_</td><td style="vertical-align:top;">:</td><td><div></div></td></tr><tr><td style="font-weight:bold;vertical-align:top;">user_type</td><td style="vertical-align:top;">:</td><td><div>b</div></td></tr><tr><td style="font-weight:bold;vertical-align:top;">username</td><td style="vertical-align:top;">:</td><td><div>sada</div></td></tr></table></div></td></tr><tr><td style="font-weight:bold;vertical-align:top;">user_groups</td><td style="vertical-align:top;">:</td><td><div><table></table></div></td></tr></table></div></td></tr><tr><td style="font-weight:bold;vertical-align:top;">flash</td><td style="vertical-align:top;">:</td><td><div>None</div></td></tr><tr><td style="font-weight:bold;vertical-align:top;">last_orderby</td><td style="vertical-align:top;">:</td><td><div>None</div></td></tr><tr><td style="font-weight:bold;vertical-align:top;">last_query</td><td style="vertical-align:top;">:</td><td><div>db.sub_edition.id&gt;0</div></td></tr></table></div>'
tRp252
sS'etype'
p253
S"<class 'sqlite3.IntegrityError'>"
p254
sS'date'
p255
S'Thu Apr  2 21:41:43 2015'
p256
sS'response'
p257
g61
(S's\xc62\x00\x00<div><table><tr><td style="font-weight:bold;vertical-align:top;">body</td><td style="vertical-align:top;">:</td><td><div>&lt;cStringIO.StringO object at 0x7f8aa08b96c0&gt;</div></td></tr><tr><td style="font-weight:bold;vertical-align:top;">cookies</td><td style="vertical-align:top;">:</td><td><div><table><tr><td style="font-weight:bold;vertical-align:top;">session_id_critico</td><td style="vertical-align:top;">:</td><td><div>127.0.0.1-7aa4f4df-3922-49fa-a74c-8f4b5c4e5677<table><tr><td style="font-weight:bold;vertical-align:top;">comment</td><td style="vertical-align:top;">:</td><td><div></div></td></tr><tr><td style="font-weight:bold;vertical-align:top;">domain</td><td style="vertical-align:top;">:</td><td><div></div></td></tr><tr><td style="font-weight:bold;vertical-align:top;">expires</td><td style="vertical-align:top;">:</td><td><div></div></td></tr><tr><td style="font-weight:bold;vertical-align:top;">httponly</td><td style="vertical-align:top;">:</td><td><div></div></td></tr><tr><td style="font-weight:bold;vertical-align:top;">max-age</td><td style="vertical-align:top;">:</td><td><div></div></td></tr><tr><td style="font-weight:bold;vertical-align:top;">path</td><td style="vertical-align:top;">:</td><td><div>/</div></td></tr><tr><td style="font-weight:bold;vertical-align:top;">secure</td><td style="vertical-align:top;">:</td><td><div></div></td></tr><tr><td style="font-weight:bold;vertical-align:top;">version</td><td style="vertical-align:top;">:</td><td><div></div></td></tr></table></div></td></tr></table></div></td></tr><tr><td style="font-weight:bold;vertical-align:top;">delimiters</td><td style="vertical-align:top;">:</td><td><div><table><tr><td><div>{{</div></td></tr><tr><td><div>}}</div></td></tr></table></div></td></tr><tr><td style="font-weight:bold;vertical-align:top;">files</td><td style="vertical-align:top;">:</td><td><div><table></table></div></td></tr><tr><td style="font-weight:bold;vertical-align:top;">flash</td><td style="vertical-align:top;">:</td><td><div></div></td></tr><tr><td style="font-weight:bold;vertical-align:top;">form_label_separator</td><td style="vertical-align:top;">:</td><td><div>: </div></td></tr><tr><td style="font-weight:bold;vertical-align:top;">formstyle</td><td style="vertical-align:top;">:</td><td><div>table3cols</div></td></tr><tr><td style="font-weight:bold;vertical-align:top;">generic_patterns</td><td style="vertical-align:top;">:</td><td><div><table><tr><td><div>*</div></td></tr></table></div></td></tr><tr><td style="font-weight:bold;vertical-align:top;">google_analytics_id</td><td style="vertical-align:top;">:</td><td><div>None</div></td></tr><tr><td style="font-weight:bold;vertical-align:top;">headers</td><td style="vertical-align:top;">:</td><td><div><table><tr><td style="font-weight:bold;vertical-align:top;">X-Powered-By</td><td style="vertical-align:top;">:</td><td><div>web2py</div></td></tr></table></div></td></tr><tr><td style="font-weight:bold;vertical-align:top;">logo</td><td style="vertical-align:top;">:</td><td><div><a class="brand" href="http://www.web2py.com/"><b>web<span>2</span>py</b>&trade;&nbsp;</a></div></td></tr><tr><td style="font-weight:bold;vertical-align:top;">menu</td><td style="vertical-align:top;">:</td><td><div><table><tr><td><div><table><tr><td><div>Home</div></td></tr><tr><td><div>False</div></td></tr><tr><td><div>/critico/default/index</div></td></tr><tr><td><div><table></table></div></td></tr></table></div></td></tr><tr><td><div><table><tr><td><div><span class="highlighted">web2py</span></div></td></tr><tr><td><div>False</div></td></tr><tr><td><div>http://web2py.com</div></td></tr><tr><td><div><table><tr><td><div><table><tr><td><div>My Sites</div></td></tr><tr><td><div>False</div></td></tr><tr><td><div>/admin/default/site</div></td></tr></table></div></td></tr><tr><td><div><table><tr><td><div>This App</div></td></tr><tr><td><div>False</div></td></tr><tr><td><div>/admin/default/design/critico</div></td></tr><tr><td><div>[(&lt;lazyT &#x27;Controller&#x27;&gt;, False, &#x27;/admin/default/edit/critico/controllers/default.py&#x27;), (&lt;lazyT &#x27;View&#x27;&gt;, False, &#x27;/admin/default/edit/critico/views/default/sub_edition_manager_edit.html&#x27;), (&lt;lazyT &#x27;Layout&#x27;&gt;, False, &#x27;/admin/default/edit/critico/views/layout.html&#x27;), (&lt;lazyT &#x27;Stylesheet&#x27;&gt;, False, &#x27;/admin/default/edit/critico/static/css/web2py.css&#x27;), (&lt;lazyT &#x27;DB Model&#x27;&gt;, False, &#x27;/admin/default/edit/critico/models/db.py&#x27;), (&lt;lazyT &#x27;Menu Model&#x27;&gt;, False, &#x27;/admin/default/edit/critico/models/menu.py&#x27;), (&lt;lazyT &#x27;Database&#x27;&gt;, False, &#x27;/critico/appadmin/index&#x27;), (&lt;lazyT &#x27;Errors&#x27;&gt;, False, &#x27;/admin/default/errors/critico&#x27;), (&lt;lazyT &#x27;About&#x27;&gt;, False, &#x27;/admin/default/about/critico&#x27;)]</div></td></tr></table></div></td></tr><tr><td><div><table><tr><td><div>web2py.com</div></td></tr><tr><td><div>False</div></td></tr><tr><td><div>http://www.web2py.com</div></td></tr><tr><td><div>[(&lt;lazyT &#x27;Download&#x27;&gt;, False, &#x27;http://www.web2py.com/examples/default/download&#x27;), (&lt;lazyT &#x27;Support&#x27;&gt;, False, &#x27;http://www.web2py.com/examples/default/support&#x27;), (&lt;lazyT &#x27;Demo&#x27;&gt;, False, &#x27;http://web2py.com/demo_admin&#x27;), (&lt;lazyT &#x27;Quick Examples&#x27;&gt;, False, &#x27;http://web2py.com/examples/default/examples&#x27;), (&lt;lazyT &#x27;FAQ&#x27;&gt;, False, &#x27;http://web2py.com/AlterEgo&#x27;), (&lt;lazyT &#x27;Videos&#x27;&gt;, False, &#x27;http://www.web2py.com/examples/default/videos/&#x27;), (&lt;lazyT &#x27;Free Applications&#x27;&gt;, False, &#x27;http://web2py.com/appliances&#x27;), (&lt;lazyT &#x27;Plugins&#x27;&gt;, False, &#x27;http://web2py.com/plugins&#x27;), (&lt;lazyT &#x27;Layouts&#x27;&gt;, False, &#x27;http://web2py.com/layouts&#x27;), (&lt;lazyT &#x27;Recipes&#x27;&gt;, False, &#x27;http://web2pyslices.com/&#x27;), (&lt;lazyT &#x27;Semantic&#x27;&gt;, False, &#x27;http://web2py.com/semantic&#x27;)]</div></td></tr></table></div></td></tr><tr><td><div><table><tr><td><div>Documentation</div></td></tr><tr><td><div>False</div></td></tr><tr><td><div>http://www.web2py.com/book</div></td></tr><tr><td><div>[(&lt;lazyT &#x27;Preface&#x27;&gt;, False, &#x27;http://www.web2py.com/book/default/chapter/00&#x27;), (&lt;lazyT &#x27;Introduction&#x27;&gt;, False, &#x27;http://www.web2py.com/book/default/chapter/01&#x27;), (&lt;lazyT &#x27;Python&#x27;&gt;, False, &#x27;http://www.web2py.com/book/default/chapter/02&#x27;), (&lt;lazyT &#x27;Overview&#x27;&gt;, False, &#x27;http://www.web2py.com/book/default/chapter/03&#x27;), (&lt;lazyT &#x27;The Core&#x27;&gt;, False, &#x27;http://www.web2py.com/book/default/chapter/04&#x27;), (&lt;lazyT &#x27;The Views&#x27;&gt;, False, &#x27;http://www.web2py.com/book/default/chapter/05&#x27;), (&lt;lazyT &#x27;Database&#x27;&gt;, False, &#x27;http://www.web2py.com/book/default/chapter/06&#x27;), (&lt;lazyT &#x27;Forms and Validators&#x27;&gt;, False, &#x27;http://www.web2py.com/book/default/chapter/07&#x27;), (&lt;lazyT &#x27;Email and SMS&#x27;&gt;, False, &#x27;http://www.web2py.com/book/default/chapter/08&#x27;), (&lt;lazyT &#x27;Access Control&#x27;&gt;, False, &#x27;http://www.web2py.com/book/default/chapter/09&#x27;), (&lt;lazyT &#x27;Services&#x27;&gt;, False, &#x27;http://www.web2py.com/book/default/chapter/10&#x27;), (&lt;lazyT &#x27;Ajax Recipes&#x27;&gt;, False, &#x27;http://www.web2py.com/book/default/chapter/11&#x27;), (&lt;lazyT &#x27;Components and Plugins&#x27;&gt;, False, &#x27;http://www.web2py.com/book/default/chapter/12&#x27;), (&lt;lazyT &#x27;Deployment Recipes&#x27;&gt;, False, &#x27;http://www.web2py.com/book/default/chapter/13&#x27;), (&lt;lazyT &#x27;Other Recipes&#x27;&gt;, False, &#x27;http://www.web2py.com/book/default/chapter/14&#x27;), (&lt;lazyT &#x27;Buy this book&#x27;&gt;, False, &#x27;http://stores.lulu.com/web2py&#x27;)]</div></td></tr></table></div></td></tr><tr><td><div><table><tr><td><div>Community</div></td></tr><tr><td><div>False</div></td></tr><tr><td><div>None</div></td></tr><tr><td><div>[(&lt;lazyT &#x27;Groups&#x27;&gt;, False, &#x27;http://www.web2py.com/examples/default/usergroups&#x27;), (&lt;lazyT &#x27;Twitter&#x27;&gt;, False, &#x27;http://twitter.com/web2py&#x27;), (&lt;lazyT &#x27;Live Chat&#x27;&gt;, False, &#x27;http://webchat.freenode.net/?channels=web2py&#x27;)]</div></td></tr></table></div></td></tr><tr><td><div><table><tr><td><div>Plugins</div></td></tr><tr><td><div>False</div></td></tr><tr><td><div>None</div></td></tr><tr><td><div>[(&#x27;plugin_wiki&#x27;, False, &#x27;http://web2py.com/examples/default/download&#x27;), (&lt;lazyT &#x27;Other Plugins&#x27;&gt;, False, &#x27;http://web2py.com/plugins&#x27;), (&lt;lazyT &#x27;Layout Plugins&#x27;&gt;, False, &#x27;http://web2py.com/layouts&#x27;)]</div></td></tr></table></div></td></tr></table></div></td></tr></table></div></td></tr></table></div></td></tr><tr><td style="font-weight:bold;vertical-align:top;">meta</td><td style="vertical-align:top;">:</td><td><div><table><tr><td style="font-weight:bold;vertical-align:top;">author</td><td style="vertical-align:top;">:</td><td><div>Your Name &lt;you@example.com&gt;</div></td></tr><tr><td style="font-weight:bold;vertical-align:top;">generator</td><td style="vertical-align:top;">:</td><td><div>Web2py Web Framework</div></td></tr><tr><td style="font-weight:bold;vertical-align:top;">keywords</td><td style="vertical-align:top;">:</td><td><div>web2py, python, framework</div></td></tr></table></div></td></tr><tr><td style="font-weight:bold;vertical-align:top;">models_to_run</td><td style="vertical-align:top;">:</td><td><div><table><tr><td><div>^\\w+\\.py$</div></td></tr><tr><td><div>^default/\\w+\\.py$</div></td></tr><tr><td><div>^default/sub_edition_manager_edit/\\w+\\.py$</div></td></tr></table></div></td></tr><tr><td style="font-weight:bold;vertical-align:top;">postprocessing</td><td style="vertical-align:top;">:</td><td><div><table></table></div></td></tr><tr><td style="font-weight:bold;vertical-align:top;">session_client</td><td style="vertical-align:top;">:</td><td><div>127.0.0.1</div></td></tr><tr><td style="font-weight:bold;vertical-align:top;">session_cookie_compression_level</td><td style="vertical-align:top;">:</td><td><div>None</div></td></tr><tr><td style="font-weight:bold;vertical-align:top;">session_cookie_expires</td><td style="vertical-align:top;">:</td><td><div>None</div></td></tr><tr><td style="font-weight:bold;vertical-align:top;">session_cookie_key</td><td style="vertical-align:top;">:</td><td><div>None</div></td></tr><tr><td style="font-weight:bold;vertical-align:top;">session_data_name</td><td style="vertical-align:top;">:</td><td><div>session_data_critico</div></td></tr><tr><td style="font-weight:bold;vertical-align:top;">session_file</td><td style="vertical-align:top;">:</td><td><div>&lt;open file &#x27;/home/dhruv/web2py/applications/critico/sessions/090/0f3/127.0.0.1-7aa4f4df-3922-49fa-a74c-8f4b5c4e5677&#x27;, mode &#x27;rb+&#x27; at 0x7f8ac07eee40&gt;</div></td></tr><tr><td style="font-weight:bold;vertical-align:top;">session_filename</td><td style="vertical-align:top;">:</td><td><div>/home/dhruv/web2py/applications/critico/sessions/127.0.0.1-7aa4f4df-3922-49fa-a74c-8f4b5c4e5677</div></td></tr><tr><td style="font-weight:bold;vertical-align:top;">session_hash</td><td style="vertical-align:top;">:</td><td><div>8de2905c31eb83817775097da95e7a0f</div></td></tr><tr><td style="font-weight:bold;vertical-align:top;">session_id</td><td style="vertical-align:top;">:</td><td><div>127.0.0.1-7aa4f4df-3922-49fa-a74c-8f4b5c4e5677</div></td></tr><tr><td style="font-weight:bold;vertical-align:top;">session_id_name</td><td style="vertical-align:top;">:</td><td><div>session_id_critico</div></td></tr><tr><td style="font-weight:bold;vertical-align:top;">session_locked</td><td style="vertical-align:top;">:</td><td><div>True</div></td></tr><tr><td style="font-weight:bold;vertical-align:top;">session_masterapp</td><td style="vertical-align:top;">:</td><td><div>critico</div></td></tr><tr><td style="font-weight:bold;vertical-align:top;">session_new</td><td style="vertical-align:top;">:</td><td><div>False</div></td></tr><tr><td style="font-weight:bold;vertical-align:top;">session_storage_type</td><td style="vertical-align:top;">:</td><td><div>file</div></td></tr><tr><td style="font-weight:bold;vertical-align:top;">status</td><td style="vertical-align:top;">:</td><td><div>200</div></td></tr><tr><td style="font-weight:bold;vertical-align:top;">subtitle</td><td style="vertical-align:top;">:</td><td><div></div></td></tr><tr><td style="font-weight:bold;vertical-align:top;">title</td><td style="vertical-align:top;">:</td><td><div>Critico</div></td></tr><tr><td style="font-weight:bold;vertical-align:top;">view</td><td style="vertical-align:top;">:</td><td><div>default/sub_edition_manager_edit.html</div></td></tr></table></div>'
tRp258
sS'locals'
p259
(dp260
S'e'
S"IntegrityError('FOREIGN KEY constraint failed',)"
p261
sS'fields'
p262
S'[(<gluon.dal.objects.Field object>, 7)]'
p263
sS'self'
p264
S'<gluon.dal.adapters.sqlite.SQLiteAdapter object>'
p265
sS'tablename'
p266
S"'sub_edition'"
p267
sS'sql'
p268
S"'UPDATE sub_edition SET edition_ref=7 WHERE (sub_edition.id = 2);'"
p269
sS'query'
p270
S'<Query (sub_edition.id = 2)>'
p271
sS'table'
p272
S'<Table sub_edition (id,product_ref,edition_ref,n...ption,display_picture_name,display_picture_blob)>'
p273
sssS'traceback'
p274
S'Traceback (most recent call last):\n  File "/home/dhruv/web2py/gluon/restricted.py", line 224, in restricted\n    exec ccode in environment\n  File "/home/dhruv/web2py/applications/critico/controllers/default.py", line 286, in <module>\n  File "/home/dhruv/web2py/gluon/globals.py", line 393, in <lambda>\n    self._caller = lambda f: f()\n  File "/home/dhruv/web2py/applications/critico/controllers/default.py", line 76, in sub_edition_manager_edit\n    return dict(form=getSubEditionManagerEdit(subedId, edId, prodId))\n  File "/home/dhruv/web2py/applications/critico/controllers/default.py", line 283, in getSubEditionManagerEdit\n    updateSubEditionEditionId(form.vars.id, edId)\n  File "/home/dhruv/web2py/applications/critico/controllers/default.py", line 264, in updateSubEditionEditionId\n    db(db.sub_edition.id == subedId).update(edition_ref=edId)\n  File "/home/dhruv/web2py/gluon/dal/objects.py", line 2090, in update\n    ret = db._adapter.update("%s" % table._tablename,self.query,fields)\n  File "/home/dhruv/web2py/gluon/dal/adapters/base.py", line 976, in update\n    raise e\nIntegrityError: FOREIGN KEY constraint failed\n'
p275
s.